target datalayout = "e-m:e-p270:32:32-p271:32:32-p272:64:64-i64:64-i128:128-f80:128-n8:16:32:64-S128"
target triple = "x86_64-pc-linux-gnu"

%"struct.duckdb_libpgquery::PGSelectStmt" = type { i32, ptr, ptr, ptr, ptr, ptr, ptr, ptr, ptr, ptr, ptr, ptr, ptr, ptr, ptr, ptr, ptr, ptr, i32, i8, i8, i8, ptr, ptr }

@.str.174 = private unnamed_addr constant [101 x i8] c"DESCRIBE/SHOW/SUMMARIZE with CTE/ORDER BY/... not allowed - wrap the statement in a subquery instead\00", align 1
@.str.175 = private unnamed_addr constant [38 x i8] c"multiple ORDER BY clauses not allowed\00", align 1
@.str.176 = private unnamed_addr constant [36 x i8] c"multiple OFFSET clauses not allowed\00", align 1
@.str.177 = private unnamed_addr constant [35 x i8] c"multiple LIMIT clauses not allowed\00", align 1
@.str.178 = private unnamed_addr constant [34 x i8] c"multiple WITH clauses not allowed\00", align 1

; Function Attrs: mustprogress uwtable
define internal void @_ZN17duckdb_libpgqueryL19insertSelectOptionsEPNS_12PGSelectStmtEPNS_6PGListES3_PNS_6PGNodeES5_S5_PNS_12PGWithClauseEPv(ptr noundef %0, ptr noundef %1, ptr noundef %2, ptr noundef %3, ptr noundef %4, ptr noundef %5, ptr noundef %6, ptr noundef %7) #0 {
  %9 = alloca ptr, align 8
  %10 = alloca ptr, align 8
  %11 = alloca ptr, align 8
  %12 = alloca ptr, align 8
  %13 = alloca ptr, align 8
  %14 = alloca ptr, align 8
  %15 = alloca ptr, align 8
  %16 = alloca ptr, align 8
  store ptr %0, ptr %9, align 8, !tbaa !343
  store ptr %1, ptr %10, align 8, !tbaa !286
  store ptr %2, ptr %11, align 8, !tbaa !286
  store ptr %3, ptr %12, align 8, !tbaa !408
  store ptr %4, ptr %13, align 8, !tbaa !408
  store ptr %5, ptr %14, align 8, !tbaa !408
  store ptr %6, ptr %15, align 8, !tbaa !753
  store ptr %7, ptr %16, align 8, !tbaa !3
  %17 = load ptr, ptr %9, align 8, !tbaa !343
  %18 = getelementptr inbounds nuw %"struct.duckdb_libpgquery::PGSelectStmt", ptr %17, i32 0, i32 0
  %19 = load i32, ptr %18, align 8, !tbaa !754
  %20 = icmp ne i32 %19, 232
  br i1 %20, label %21, label %29

21:                                               ; preds = %8
  %22 = call noundef i32 @_ZN17duckdb_libpgquery7errcodeEi(i32 noundef 0)
  %23 = call noundef i32 (ptr, ...) @_ZN17duckdb_libpgquery6errmsgEPKcz(ptr noundef @.str.174)
  %24 = load ptr, ptr %9, align 8, !tbaa !343
  %25 = call noundef i32 @_ZN17duckdb_libpgquery12exprLocationEPKNS_6PGNodeE(ptr noundef %24)
  %26 = load ptr, ptr %16, align 8, !tbaa !3
  %27 = call noundef i32 @_ZN17duckdb_libpgquery19scanner_errpositionEiPv(i32 noundef %25, ptr noundef %26)
  %28 = call noundef i32 (i32, ...) @_ZN17duckdb_libpgquery7ereportEiz(i32 noundef 3, i32 noundef %27)
  br label %29

29:                                               ; preds = %21, %8
  %30 = load ptr, ptr %10, align 8, !tbaa !286
  %31 = icmp ne ptr %30, null
  br i1 %31, label %32, label %49

32:                                               ; preds = %29
  %33 = load ptr, ptr %9, align 8, !tbaa !343
  %34 = getelementptr inbounds nuw %"struct.duckdb_libpgquery::PGSelectStmt", ptr %33, i32 0, i32 12
  %35 = load ptr, ptr %34, align 8, !tbaa !755
  %36 = icmp ne ptr %35, null
  br i1 %36, label %37, label %45

37:                                               ; preds = %32
  %38 = call noundef i32 @_ZN17duckdb_libpgquery7errcodeEi(i32 noundef 0)
  %39 = call noundef i32 (ptr, ...) @_ZN17duckdb_libpgquery6errmsgEPKcz(ptr noundef @.str.175)
  %40 = load ptr, ptr %10, align 8, !tbaa !286
  %41 = call noundef i32 @_ZN17duckdb_libpgquery12exprLocationEPKNS_6PGNodeE(ptr noundef %40)
  %42 = load ptr, ptr %16, align 8, !tbaa !3
  %43 = call noundef i32 @_ZN17duckdb_libpgquery19scanner_errpositionEiPv(i32 noundef %41, ptr noundef %42)
  %44 = call noundef i32 (i32, ...) @_ZN17duckdb_libpgquery7ereportEiz(i32 noundef 3, i32 noundef %43)
  br label %45

45:                                               ; preds = %37, %32
  %46 = load ptr, ptr %10, align 8, !tbaa !286
  %47 = load ptr, ptr %9, align 8, !tbaa !343
  %48 = getelementptr inbounds nuw %"struct.duckdb_libpgquery::PGSelectStmt", ptr %47, i32 0, i32 12
  store ptr %46, ptr %48, align 8, !tbaa !755
  br label %49

49:                                               ; preds = %45, %29
  %50 = load ptr, ptr %9, align 8, !tbaa !343
  %51 = getelementptr inbounds nuw %"struct.duckdb_libpgquery::PGSelectStmt", ptr %50, i32 0, i32 16
  %52 = load ptr, ptr %51, align 8, !tbaa !756
  %53 = load ptr, ptr %11, align 8, !tbaa !286
  %54 = call noundef ptr @_ZN17duckdb_libpgquery11list_concatEPNS_6PGListES1_(ptr noundef %52, ptr noundef %53)
  %55 = load ptr, ptr %9, align 8, !tbaa !343
  %56 = getelementptr inbounds nuw %"struct.duckdb_libpgquery::PGSelectStmt", ptr %55, i32 0, i32 16
  store ptr %54, ptr %56, align 8, !tbaa !756
  %57 = load ptr, ptr %12, align 8, !tbaa !408
  %58 = icmp ne ptr %57, null
  br i1 %58, label %59, label %76

59:                                               ; preds = %49
  %60 = load ptr, ptr %9, align 8, !tbaa !343
  %61 = getelementptr inbounds nuw %"struct.duckdb_libpgquery::PGSelectStmt", ptr %60, i32 0, i32 13
  %62 = load ptr, ptr %61, align 8, !tbaa !757
  %63 = icmp ne ptr %62, null
  br i1 %63, label %64, label %72

64:                                               ; preds = %59
  %65 = call noundef i32 @_ZN17duckdb_libpgquery7errcodeEi(i32 noundef 0)
  %66 = call noundef i32 (ptr, ...) @_ZN17duckdb_libpgquery6errmsgEPKcz(ptr noundef @.str.176)
  %67 = load ptr, ptr %12, align 8, !tbaa !408
  %68 = call noundef i32 @_ZN17duckdb_libpgquery12exprLocationEPKNS_6PGNodeE(ptr noundef %67)
  %69 = load ptr, ptr %16, align 8, !tbaa !3
  %70 = call noundef i32 @_ZN17duckdb_libpgquery19scanner_errpositionEiPv(i32 noundef %68, ptr noundef %69)
  %71 = call noundef i32 (i32, ...) @_ZN17duckdb_libpgquery7ereportEiz(i32 noundef 3, i32 noundef %70)
  br label %72

72:                                               ; preds = %64, %59
  %73 = load ptr, ptr %12, align 8, !tbaa !408
  %74 = load ptr, ptr %9, align 8, !tbaa !343
  %75 = getelementptr inbounds nuw %"struct.duckdb_libpgquery::PGSelectStmt", ptr %74, i32 0, i32 13
  store ptr %73, ptr %75, align 8, !tbaa !757
  br label %76

76:                                               ; preds = %72, %49
  %77 = load ptr, ptr %13, align 8, !tbaa !408
  %78 = icmp ne ptr %77, null
  br i1 %78, label %79, label %96

79:                                               ; preds = %76
  %80 = load ptr, ptr %9, align 8, !tbaa !343
  %81 = getelementptr inbounds nuw %"struct.duckdb_libpgquery::PGSelectStmt", ptr %80, i32 0, i32 14
  %82 = load ptr, ptr %81, align 8, !tbaa !758
  %83 = icmp ne ptr %82, null
  br i1 %83, label %84, label %92

84:                                               ; preds = %79
  %85 = call noundef i32 @_ZN17duckdb_libpgquery7errcodeEi(i32 noundef 0)
  %86 = call noundef i32 (ptr, ...) @_ZN17duckdb_libpgquery6errmsgEPKcz(ptr noundef @.str.177)
  %87 = load ptr, ptr %13, align 8, !tbaa !408
  %88 = call noundef i32 @_ZN17duckdb_libpgquery12exprLocationEPKNS_6PGNodeE(ptr noundef %87)
  %89 = load ptr, ptr %16, align 8, !tbaa !3
  %90 = call noundef i32 @_ZN17duckdb_libpgquery19scanner_errpositionEiPv(i32 noundef %88, ptr noundef %89)
  %91 = call noundef i32 (i32, ...) @_ZN17duckdb_libpgquery7ereportEiz(i32 noundef 3, i32 noundef %90)
  br label %92

92:                                               ; preds = %84, %79
  %93 = load ptr, ptr %13, align 8, !tbaa !408
  %94 = load ptr, ptr %9, align 8, !tbaa !343
  %95 = getelementptr inbounds nuw %"struct.duckdb_libpgquery::PGSelectStmt", ptr %94, i32 0, i32 14
  store ptr %93, ptr %95, align 8, !tbaa !758
  br label %96

96:                                               ; preds = %92, %76
  %97 = load ptr, ptr %12, align 8, !tbaa !408
  %98 = load ptr, ptr %14, align 8, !tbaa !408
  %99 = icmp eq ptr %97, %98
  br i1 %99, label %100, label %103

100:                                              ; preds = %96
  %101 = load ptr, ptr %9, align 8, !tbaa !343
  %102 = getelementptr inbounds nuw %"struct.duckdb_libpgquery::PGSelectStmt", ptr %101, i32 0, i32 21
  store i8 1, ptr %102, align 2, !tbaa !759
  br label %103

103:                                              ; preds = %100, %96
  %104 = load ptr, ptr %15, align 8, !tbaa !753
  %105 = icmp ne ptr %104, null
  br i1 %105, label %106, label %123

106:                                              ; preds = %103
  %107 = load ptr, ptr %9, align 8, !tbaa !343
  %108 = getelementptr inbounds nuw %"struct.duckdb_libpgquery::PGSelectStmt", ptr %107, i32 0, i32 17
  %109 = load ptr, ptr %108, align 8, !tbaa !760
  %110 = icmp ne ptr %109, null
  br i1 %110, label %111, label %119

111:                                              ; preds = %106
  %112 = call noundef i32 @_ZN17duckdb_libpgquery7errcodeEi(i32 noundef 0)
  %113 = call noundef i32 (ptr, ...) @_ZN17duckdb_libpgquery6errmsgEPKcz(ptr noundef @.str.178)
  %114 = load ptr, ptr %15, align 8, !tbaa !753
  %115 = call noundef i32 @_ZN17duckdb_libpgquery12exprLocationEPKNS_6PGNodeE(ptr noundef %114)
  %116 = load ptr, ptr %16, align 8, !tbaa !3
  %117 = call noundef i32 @_ZN17duckdb_libpgquery19scanner_errpositionEiPv(i32 noundef %115, ptr noundef %116)
  %118 = call noundef i32 (i32, ...) @_ZN17duckdb_libpgquery7ereportEiz(i32 noundef 3, i32 noundef %117)
  br label %119

119:                                              ; preds = %111, %106
  %120 = load ptr, ptr %15, align 8, !tbaa !753
  %121 = load ptr, ptr %9, align 8, !tbaa !343
  %122 = getelementptr inbounds nuw %"struct.duckdb_libpgquery::PGSelectStmt", ptr %121, i32 0, i32 17
  store ptr %120, ptr %122, align 8, !tbaa !760
  br label %123

123:                                              ; preds = %119, %103
  ret void
}