; Function Attrs: mustprogress uwtable
define internal fastcc void @_ZN17duckdb_libpgqueryL19insertSelectOptionsEPNS_12PGSelectStmtEPNS_6PGListES3_PNS_6PGNodeES5_S5_PNS_12PGWithClauseEPv(ptr noundef %0, ptr noundef %1, ptr noundef %2, ptr noundef %3, ptr noundef %4, ptr noundef readnone captures(address) %5, ptr noundef %6, ptr noundef %7) unnamed_addr #0 {
  %9 = load i32, ptr %0, align 8, !tbaa !592
  %.not = icmp eq i32 %9, 232
  br i1 %.not, label %16, label %10

10:                                               ; preds = %8
  %11 = tail call noundef i32 @_ZN17duckdb_libpgquery7errcodeEi(i32 noundef 0)
  %12 = tail call noundef i32 (ptr, ...) @_ZN17duckdb_libpgquery6errmsgEPKcz(ptr noundef nonnull @.str.174)
  %13 = tail call noundef i32 @_ZN17duckdb_libpgquery12exprLocationEPKNS_6PGNodeE(ptr noundef nonnull %0)
  %14 = tail call noundef i32 @_ZN17duckdb_libpgquery19scanner_errpositionEiPv(i32 noundef %13, ptr noundef %7)
  %15 = tail call noundef i32 (i32, ...) @_ZN17duckdb_libpgquery7ereportEiz(i32 noundef 3, i32 noundef %14)
  br label %16

16:                                               ; preds = %10, %8
  %.not36 = icmp eq ptr %1, null
  br i1 %.not36, label %27, label %17

17:                                               ; preds = %16
  %18 = getelementptr inbounds nuw i8, ptr %0, i64 96
  %19 = load ptr, ptr %18, align 8, !tbaa !593
  %.not37 = icmp eq ptr %19, null
  br i1 %.not37, label %26, label %20

20:                                               ; preds = %17
  %21 = tail call noundef i32 @_ZN17duckdb_libpgquery7errcodeEi(i32 noundef 0)
  %22 = tail call noundef i32 (ptr, ...) @_ZN17duckdb_libpgquery6errmsgEPKcz(ptr noundef nonnull @.str.175)
  %23 = tail call noundef i32 @_ZN17duckdb_libpgquery12exprLocationEPKNS_6PGNodeE(ptr noundef nonnull %1)
  %24 = tail call noundef i32 @_ZN17duckdb_libpgquery19scanner_errpositionEiPv(i32 noundef %23, ptr noundef %7)
  %25 = tail call noundef i32 (i32, ...) @_ZN17duckdb_libpgquery7ereportEiz(i32 noundef 3, i32 noundef %24)
  br label %26

26:                                               ; preds = %20, %17
  store ptr %1, ptr %18, align 8, !tbaa !593
  br label %27

27:                                               ; preds = %26, %16
  %28 = getelementptr inbounds nuw i8, ptr %0, i64 128
  %29 = load ptr, ptr %28, align 8, !tbaa !594
  %30 = tail call noundef ptr @_ZN17duckdb_libpgquery11list_concatEPNS_6PGListES1_(ptr noundef %29, ptr noundef %2)
  store ptr %30, ptr %28, align 8, !tbaa !594
  %.not38 = icmp eq ptr %3, null
  br i1 %.not38, label %41, label %31

31:                                               ; preds = %27
  %32 = getelementptr inbounds nuw i8, ptr %0, i64 104
  %33 = load ptr, ptr %32, align 8, !tbaa !595
  %.not39 = icmp eq ptr %33, null
  br i1 %.not39, label %40, label %34

34:                                               ; preds = %31
  %35 = tail call noundef i32 @_ZN17duckdb_libpgquery7errcodeEi(i32 noundef 0)
  %36 = tail call noundef i32 (ptr, ...) @_ZN17duckdb_libpgquery6errmsgEPKcz(ptr noundef nonnull @.str.176)
  %37 = tail call noundef i32 @_ZN17duckdb_libpgquery12exprLocationEPKNS_6PGNodeE(ptr noundef nonnull %3)
  %38 = tail call noundef i32 @_ZN17duckdb_libpgquery19scanner_errpositionEiPv(i32 noundef %37, ptr noundef %7)
  %39 = tail call noundef i32 (i32, ...) @_ZN17duckdb_libpgquery7ereportEiz(i32 noundef 3, i32 noundef %38)
  br label %40

40:                                               ; preds = %34, %31
  store ptr %3, ptr %32, align 8, !tbaa !595
  br label %41

41:                                               ; preds = %40, %27
  %.not40 = icmp eq ptr %4, null
  br i1 %.not40, label %52, label %42

42:                                               ; preds = %41
  %43 = getelementptr inbounds nuw i8, ptr %0, i64 112
  %44 = load ptr, ptr %43, align 8, !tbaa !596
  %.not41 = icmp eq ptr %44, null
  br i1 %.not41, label %51, label %45

45:                                               ; preds = %42
  %46 = tail call noundef i32 @_ZN17duckdb_libpgquery7errcodeEi(i32 noundef 0)
  %47 = tail call noundef i32 (ptr, ...) @_ZN17duckdb_libpgquery6errmsgEPKcz(ptr noundef nonnull @.str.177)
  %48 = tail call noundef i32 @_ZN17duckdb_libpgquery12exprLocationEPKNS_6PGNodeE(ptr noundef nonnull %4)
  %49 = tail call noundef i32 @_ZN17duckdb_libpgquery19scanner_errpositionEiPv(i32 noundef %48, ptr noundef %7)
  %50 = tail call noundef i32 (i32, ...) @_ZN17duckdb_libpgquery7ereportEiz(i32 noundef 3, i32 noundef %49)
  br label %51

51:                                               ; preds = %45, %42
  store ptr %4, ptr %43, align 8, !tbaa !596
  br label %52

52:                                               ; preds = %51, %41
  %53 = icmp eq ptr %3, %5
  br i1 %53, label %54, label %56

54:                                               ; preds = %52
  %55 = getelementptr inbounds nuw i8, ptr %0, i64 150
  store i8 1, ptr %55, align 2, !tbaa !597
  br label %56

56:                                               ; preds = %54, %52
  %.not42 = icmp eq ptr %6, null
  br i1 %.not42, label %67, label %57

57:                                               ; preds = %56
  %58 = getelementptr inbounds nuw i8, ptr %0, i64 136
  %59 = load ptr, ptr %58, align 8, !tbaa !598
  %.not43 = icmp eq ptr %59, null
  br i1 %.not43, label %66, label %60

60:                                               ; preds = %57
  %61 = tail call noundef i32 @_ZN17duckdb_libpgquery7errcodeEi(i32 noundef 0)
  %62 = tail call noundef i32 (ptr, ...) @_ZN17duckdb_libpgquery6errmsgEPKcz(ptr noundef nonnull @.str.178)
  %63 = tail call noundef i32 @_ZN17duckdb_libpgquery12exprLocationEPKNS_6PGNodeE(ptr noundef nonnull %6)
  %64 = tail call noundef i32 @_ZN17duckdb_libpgquery19scanner_errpositionEiPv(i32 noundef %63, ptr noundef %7)
  %65 = tail call noundef i32 (i32, ...) @_ZN17duckdb_libpgquery7ereportEiz(i32 noundef 3, i32 noundef %64)
  br label %66

66:                                               ; preds = %60, %57
  store ptr %6, ptr %58, align 8, !tbaa !598
  br label %67

67:                                               ; preds = %66, %56
  ret void
}